target datalayout = "e-m:e-p270:32:32-p271:32:32-p272:64:64-i64:64-i128:128-f80:128-n8:16:32:64-S128"
target triple = "x86_64-pc-linux-gnu"

%struct.Tree_Sto_t_ = type { i32, i32, [16 x i32], [16 x i32], [16 x i32], [16 x i32], [16 x %struct.Vec_Int_t_], ptr }
%struct.Vec_Int_t_ = type { i32, i32, ptr }

; Function Attrs: inlinehint nounwind uwtable
define internal void @Abc_TtCopy(ptr noundef %0, ptr noundef %1, i32 noundef %2, i32 noundef %3) #4 {
  %5 = alloca ptr, align 8
  %6 = alloca ptr, align 8
  %7 = alloca i32, align 4
  %8 = alloca i32, align 4
  %9 = alloca i32, align 4
  store ptr %0, ptr %5, align 8, !tbaa !12
  store ptr %1, ptr %6, align 8, !tbaa !12
  store i32 %2, ptr %7, align 4, !tbaa !9
  store i32 %3, ptr %8, align 4, !tbaa !9
  call void @llvm.lifetime.start.p0(i64 4, ptr %9) #13
  %10 = load i32, ptr %8, align 4, !tbaa !9
  %11 = icmp ne i32 %10, 0
  br i1 %11, label %12, label %32

12:                                               ; preds = %4
  store i32 0, ptr %9, align 4, !tbaa !9
  br label %13

13:                                               ; preds = %28, %12
  %14 = load i32, ptr %9, align 4, !tbaa !9
  %15 = load i32, ptr %7, align 4, !tbaa !9
  %16 = icmp slt i32 %14, %15
  br i1 %16, label %17, label %31

17:                                               ; preds = %13
  %18 = load ptr, ptr %6, align 8, !tbaa !12
  %19 = load i32, ptr %9, align 4, !tbaa !9
  %20 = sext i32 %19 to i64
  %21 = getelementptr inbounds i64, ptr %18, i64 %20
  %22 = load i64, ptr %21, align 8, !tbaa !33
  %23 = xor i64 %22, -1
  %24 = load ptr, ptr %5, align 8, !tbaa !12
  %25 = load i32, ptr %9, align 4, !tbaa !9
  %26 = sext i32 %25 to i64
  %27 = getelementptr inbounds i64, ptr %24, i64 %26
  store i64 %23, ptr %27, align 8, !tbaa !33
  br label %28

28:                                               ; preds = %17
  %29 = load i32, ptr %9, align 4, !tbaa !9
  %30 = add nsw i32 %29, 1
  store i32 %30, ptr %9, align 4, !tbaa !9
  br label %13, !llvm.loop !49

31:                                               ; preds = %13
  br label %51

32:                                               ; preds = %4
  store i32 0, ptr %9, align 4, !tbaa !9
  br label %33

33:                                               ; preds = %47, %32
  %34 = load i32, ptr %9, align 4, !tbaa !9
  %35 = load i32, ptr %7, align 4, !tbaa !9
  %36 = icmp slt i32 %34, %35
  br i1 %36, label %37, label %50

37:                                               ; preds = %33
  %38 = load ptr, ptr %6, align 8, !tbaa !12
  %39 = load i32, ptr %9, align 4, !tbaa !9
  %40 = sext i32 %39 to i64
  %41 = getelementptr inbounds i64, ptr %38, i64 %40
  %42 = load i64, ptr %41, align 8, !tbaa !33
  %43 = load ptr, ptr %5, align 8, !tbaa !12
  %44 = load i32, ptr %9, align 4, !tbaa !9
  %45 = sext i32 %44 to i64
  %46 = getelementptr inbounds i64, ptr %43, i64 %45
  store i64 %42, ptr %46, align 8, !tbaa !33
  br label %47

47:                                               ; preds = %37
  %48 = load i32, ptr %9, align 4, !tbaa !9
  %49 = add nsw i32 %48, 1
  store i32 %49, ptr %9, align 4, !tbaa !9
  br label %33, !llvm.loop !50

50:                                               ; preds = %33
  br label %51

51:                                               ; preds = %50, %31
  call void @llvm.lifetime.end.p0(i64 4, ptr %9) #13
  ret void
}

; Function Attrs: inlinehint nounwind uwtable
define internal ptr @Abc_TtDup(ptr noundef %0, i32 noundef %1, i32 noundef %2) #4 {
  %4 = alloca ptr, align 8
  %5 = alloca i32, align 4
  %6 = alloca i32, align 4
  %7 = alloca ptr, align 8
  store ptr %0, ptr %4, align 8, !tbaa !12
  store i32 %1, ptr %5, align 4, !tbaa !9
  store i32 %2, ptr %6, align 4, !tbaa !9
  call void @llvm.lifetime.start.p0(i64 8, ptr %7) #13
  %8 = load i32, ptr %5, align 4, !tbaa !9
  %9 = sext i32 %8 to i64
  %10 = mul i64 8, %9
  %11 = call noalias ptr @malloc(i64 noundef %10) #15
  store ptr %11, ptr %7, align 8, !tbaa !12
  %12 = load ptr, ptr %7, align 8, !tbaa !12
  %13 = load ptr, ptr %4, align 8, !tbaa !12
  %14 = load i32, ptr %5, align 4, !tbaa !9
  %15 = load i32, ptr %6, align 4, !tbaa !9
  call void @Abc_TtCopy(ptr noundef %12, ptr noundef %13, i32 noundef %14, i32 noundef %15)
  %16 = load ptr, ptr %7, align 8, !tbaa !12
  call void @llvm.lifetime.end.p0(i64 8, ptr %7) #13
  ret ptr %16
}

; Function Attrs: nounwind uwtable
define ptr @Gia_ManContructTree(ptr noundef %0, i32 noundef %1, i32 noundef %2, i32 noundef %3) #0 {
  %5 = alloca ptr, align 8
  %6 = alloca i32, align 4
  %7 = alloca i32, align 4
  %8 = alloca i32, align 4
  %9 = alloca ptr, align 8
  %10 = alloca i32, align 4
  store ptr %0, ptr %5, align 8, !tbaa !12
  store i32 %1, ptr %6, align 4, !tbaa !9
  store i32 %2, ptr %7, align 4, !tbaa !9
  store i32 %3, ptr %8, align 4, !tbaa !9
  call void @llvm.lifetime.start.p0(i64 8, ptr %9) #13
  %11 = call noalias ptr @calloc(i64 noundef 1, i64 noundef 528) #14
  store ptr %11, ptr %9, align 8, !tbaa !3
  call void @llvm.lifetime.start.p0(i64 4, ptr %10) #13
  %12 = load ptr, ptr %5, align 8, !tbaa !12
  %13 = load i32, ptr %7, align 4, !tbaa !9
  %14 = load i32, ptr %8, align 4, !tbaa !9
  %15 = mul nsw i32 %13, %14
  %16 = call ptr @Abc_TtDup(ptr noundef %12, i32 noundef %15, i32 noundef 0)
  %17 = load ptr, ptr %9, align 8, !tbaa !3
  %18 = getelementptr inbounds nuw %struct.Tree_Sto_t_, ptr %17, i32 0, i32 7
  store ptr %16, ptr %18, align 8, !tbaa !14
  %19 = load i32, ptr %6, align 4, !tbaa !9
  %20 = load ptr, ptr %9, align 8, !tbaa !3
  %21 = getelementptr inbounds nuw %struct.Tree_Sto_t_, ptr %20, i32 0, i32 0
  store i32 %19, ptr %21, align 8, !tbaa !17
  %22 = load i32, ptr %7, align 4, !tbaa !9
  %23 = load ptr, ptr %9, align 8, !tbaa !3
  %24 = getelementptr inbounds nuw %struct.Tree_Sto_t_, ptr %23, i32 0, i32 1
  store i32 %22, ptr %24, align 4, !tbaa !16
  store i32 0, ptr %10, align 4, !tbaa !9
  br label %25

25:                                               ; preds = %41, %4
  %26 = load i32, ptr %10, align 4, !tbaa !9
  %27 = load i32, ptr %6, align 4, !tbaa !9
  %28 = icmp slt i32 %26, %27
  br i1 %28, label %29, label %44

29:                                               ; preds = %25
  %30 = load i32, ptr %10, align 4, !tbaa !9
  %31 = load ptr, ptr %9, align 8, !tbaa !3
  %32 = getelementptr inbounds nuw %struct.Tree_Sto_t_, ptr %31, i32 0, i32 4
  %33 = load i32, ptr %10, align 4, !tbaa !9
  %34 = sext i32 %33 to i64
  %35 = getelementptr inbounds [16 x i32], ptr %32, i64 0, i64 %34
  store i32 %30, ptr %35, align 4, !tbaa !9
  %36 = load ptr, ptr %9, align 8, !tbaa !3
  %37 = getelementptr inbounds nuw %struct.Tree_Sto_t_, ptr %36, i32 0, i32 3
  %38 = load i32, ptr %10, align 4, !tbaa !9
  %39 = sext i32 %38 to i64
  %40 = getelementptr inbounds [16 x i32], ptr %37, i64 0, i64 %39
  store i32 %30, ptr %40, align 4, !tbaa !9
  br label %41

41:                                               ; preds = %29
  %42 = load i32, ptr %10, align 4, !tbaa !9
  %43 = add nsw i32 %42, 1
  store i32 %43, ptr %10, align 4, !tbaa !9
  br label %25, !llvm.loop !38

44:                                               ; preds = %25
  store i32 0, ptr %10, align 4, !tbaa !9
  br label %45

45:                                               ; preds = %69, %44
  %46 = load i32, ptr %10, align 4, !tbaa !9
  %47 = load i32, ptr %7, align 4, !tbaa !9
  %48 = icmp slt i32 %46, %47
  br i1 %48, label %49, label %72

49:                                               ; preds = %45
  %50 = load ptr, ptr %9, align 8, !tbaa !3
  %51 = load i32, ptr %6, align 4, !tbaa !9
  %52 = load ptr, ptr %9, align 8, !tbaa !3
  %53 = getelementptr inbounds nuw %struct.Tree_Sto_t_, ptr %52, i32 0, i32 7
  %54 = load ptr, ptr %53, align 8, !tbaa !14
  %55 = load i32, ptr %10, align 4, !tbaa !9
  %56 = sext i32 %55 to i64
  %57 = getelementptr inbounds i64, ptr %54, i64 %56
  %58 = load i64, ptr %57, align 8, !tbaa !33
  %59 = trunc i64 %58 to i32
  %60 = load ptr, ptr %9, align 8, !tbaa !3
  %61 = getelementptr inbounds nuw %struct.Tree_Sto_t_, ptr %60, i32 0, i32 7
  %62 = load ptr, ptr %61, align 8, !tbaa !14
  %63 = load i32, ptr %10, align 4, !tbaa !9
  %64 = load i32, ptr %8, align 4, !tbaa !9
  %65 = mul nsw i32 %63, %64
  %66 = sext i32 %65 to i64
  %67 = getelementptr inbounds i64, ptr %62, i64 %66
  %68 = call i32 @Gia_ManFindOrAddNode(ptr noundef %50, i32 noundef %51, i32 noundef %59, ptr noundef %67)
  br label %69

69:                                               ; preds = %49
  %70 = load i32, ptr %10, align 4, !tbaa !9
  %71 = add nsw i32 %70, 1
  store i32 %71, ptr %10, align 4, !tbaa !9
  br label %45, !llvm.loop !39

72:                                               ; preds = %45
  %73 = load i32, ptr %6, align 4, !tbaa !9
  %74 = sub nsw i32 %73, 1
  store i32 %74, ptr %10, align 4, !tbaa !9
  br label %75

75:                                               ; preds = %87, %72
  %76 = load i32, ptr %10, align 4, !tbaa !9
  %77 = icmp sge i32 %76, 0
  br i1 %77, label %78, label %90

78:                                               ; preds = %75
  %79 = load ptr, ptr %9, align 8, !tbaa !3
  %80 = load i32, ptr %10, align 4, !tbaa !9
  %81 = call i32 @Gia_ManProcessLevel(ptr noundef %79, i32 noundef %80)
  %82 = load ptr, ptr %9, align 8, !tbaa !3
  %83 = getelementptr inbounds nuw %struct.Tree_Sto_t_, ptr %82, i32 0, i32 5
  %84 = load i32, ptr %10, align 4, !tbaa !9
  %85 = sext i32 %84 to i64
  %86 = getelementptr inbounds [16 x i32], ptr %83, i64 0, i64 %85
  store i32 %81, ptr %86, align 4, !tbaa !9
  br label %87

87:                                               ; preds = %78
  %88 = load i32, ptr %10, align 4, !tbaa !9
  %89 = add nsw i32 %88, -1
  store i32 %89, ptr %10, align 4, !tbaa !9
  br label %75, !llvm.loop !40

90:                                               ; preds = %75
  %91 = load ptr, ptr %9, align 8, !tbaa !3
  call void @llvm.lifetime.end.p0(i64 4, ptr %10) #13
  call void @llvm.lifetime.end.p0(i64 8, ptr %9) #13
  ret ptr %91
}