; Function Attrs: nounwind uwtable
define noalias noundef ptr @Gia_ManContructTree(ptr noundef readonly captures(none) %0, i32 noundef %1, i32 noundef %2, i32 noundef %3) local_unnamed_addr #0 {
  %5 = tail call noalias dereferenceable_or_null(528) ptr @calloc(i64 noundef 1, i64 noundef 528) #21
  %6 = mul nsw i32 %3, %2
  %7 = sext i32 %6 to i64
  %8 = shl nsw i64 %7, 3
  %9 = tail call noalias ptr @malloc(i64 noundef %8) #22
  %10 = icmp sgt i32 %6, 0
  br i1 %10, label %.lr.ph18.preheader.i.i, label %Abc_TtDup.exit

.lr.ph18.preheader.i.i:                           ; preds = %4
  %wide.trip.count24.i.i = zext nneg i32 %6 to i64
  %11 = shl nuw nsw i64 %wide.trip.count24.i.i, 3
  tail call void @llvm.memcpy.p0.p0.i64(ptr align 8 %9, ptr readonly align 8 %0, i64 %11, i1 false), !tbaa !16
  br label %Abc_TtDup.exit

Abc_TtDup.exit:                                   ; preds = %4, %.lr.ph18.preheader.i.i
  %12 = getelementptr inbounds nuw i8, ptr %5, i64 520
  store ptr %9, ptr %12, align 8, !tbaa !12
  store i32 %1, ptr %5, align 8, !tbaa !15
  %13 = getelementptr inbounds nuw i8, ptr %5, i64 4
  store i32 %2, ptr %13, align 4, !tbaa !14
  %14 = icmp sgt i32 %1, 0
  br i1 %14, label %.lr.ph, label %.preheader34

.lr.ph:                                           ; preds = %Abc_TtDup.exit
  %15 = getelementptr inbounds nuw i8, ptr %5, i64 136
  %16 = getelementptr inbounds nuw i8, ptr %5, i64 72
  %wide.trip.count = zext nneg i32 %1 to i64
  br label %19

.preheader34:                                     ; preds = %19, %Abc_TtDup.exit
  %17 = icmp sgt i32 %2, 0
  br i1 %17, label %.lr.ph37.preheader, label %.preheader

.lr.ph37.preheader:                               ; preds = %.preheader34
  %18 = sext i32 %3 to i64
  %wide.trip.count44 = zext nneg i32 %2 to i64
  br label %.lr.ph37

19:                                               ; preds = %.lr.ph, %19
  %indvars.iv = phi i64 [ 0, %.lr.ph ], [ %indvars.iv.next, %19 ]
  %20 = getelementptr inbounds nuw [16 x i32], ptr %15, i64 0, i64 %indvars.iv
  %21 = trunc nuw nsw i64 %indvars.iv to i32
  store i32 %21, ptr %20, align 4, !tbaa !4
  %22 = getelementptr inbounds nuw [16 x i32], ptr %16, i64 0, i64 %indvars.iv
  store i32 %21, ptr %22, align 4, !tbaa !4
  %indvars.iv.next = add nuw nsw i64 %indvars.iv, 1
  %exitcond.not = icmp eq i64 %indvars.iv.next, %wide.trip.count
  br i1 %exitcond.not, label %.preheader34, label %19, !llvm.loop !34

.preheader:                                       ; preds = %.lr.ph37, %.preheader34
  br i1 %14, label %.lr.ph39, label %._crit_edge

.lr.ph39:                                         ; preds = %.preheader
  %23 = getelementptr inbounds nuw i8, ptr %5, i64 200
  %24 = zext nneg i32 %1 to i64
  br label %32

.lr.ph37:                                         ; preds = %.lr.ph37.preheader, %.lr.ph37
  %indvars.iv41 = phi i64 [ 0, %.lr.ph37.preheader ], [ %indvars.iv.next42, %.lr.ph37 ]
  %25 = load ptr, ptr %12, align 8, !tbaa !12
  %26 = getelementptr inbounds nuw i64, ptr %25, i64 %indvars.iv41
  %27 = load i64, ptr %26, align 8, !tbaa !16
  %28 = trunc i64 %27 to i32
  %29 = mul nsw i64 %indvars.iv41, %18
  %30 = getelementptr inbounds i64, ptr %25, i64 %29
  %31 = tail call i32 @Gia_ManFindOrAddNode(ptr noundef nonnull %5, i32 noundef %1, i32 noundef %28, ptr noundef %30)
  %indvars.iv.next42 = add nuw nsw i64 %indvars.iv41, 1
  %exitcond45.not = icmp eq i64 %indvars.iv.next42, %wide.trip.count44
  br i1 %exitcond45.not, label %.preheader, label %.lr.ph37, !llvm.loop !35

32:                                               ; preds = %.lr.ph39, %32
  %indvars.iv46 = phi i64 [ %24, %.lr.ph39 ], [ %indvars.iv.next47, %32 ]
  %indvars.iv.next47 = add nsw i64 %indvars.iv46, -1
  %33 = trunc nuw nsw i64 %indvars.iv.next47 to i32
  %34 = tail call i32 @Gia_ManProcessLevel(ptr noundef nonnull %5, i32 noundef %33)
  %35 = getelementptr inbounds nuw [16 x i32], ptr %23, i64 0, i64 %indvars.iv.next47
  store i32 %34, ptr %35, align 4, !tbaa !4
  %36 = icmp samesign ugt i64 %indvars.iv46, 1
  br i1 %36, label %32, label %._crit_edge, !llvm.loop !36

._crit_edge:                                      ; preds = %32, %.preheader
  ret ptr %5
}